; Function Attrs: mustprogress uwtable
define noundef double @_ZNK3g2o16OptimizableGraph4chi2Ev(ptr noundef nonnull readonly align 8 captures(address) dereferenceable(288) %0) local_unnamed_addr #4 align 2 personality ptr @__gxx_personality_v0 {
  %2 = getelementptr inbounds nuw i8, ptr %0, i64 88
  %3 = load ptr, ptr %2, align 8, !tbaa !94
  %4 = getelementptr inbounds nuw i8, ptr %0, i64 72
  %.not7 = icmp eq ptr %3, %4
  br i1 %.not7, label %._crit_edge, label %.lr.ph

._crit_edge:                                      ; preds = %.lr.ph, %1
  %.0.lcssa = phi double [ 0.000000e+00, %1 ], [ %11, %.lr.ph ]
  ret double %.0.lcssa

.lr.ph:                                           ; preds = %1, %.lr.ph
  %.09 = phi double [ %11, %.lr.ph ], [ 0.000000e+00, %1 ]
  %.sroa.04.08 = phi ptr [ %12, %.lr.ph ], [ %3, %1 ]
  %5 = getelementptr inbounds nuw i8, ptr %.sroa.04.08, i64 32
  %6 = load ptr, ptr %5, align 8, !tbaa !135
  %7 = load ptr, ptr %6, align 8, !tbaa !9
  %8 = getelementptr inbounds nuw i8, ptr %7, i64 112
  %9 = load ptr, ptr %8, align 8
  %10 = tail call noundef double %9(ptr noundef nonnull align 8 dereferenceable(176) %6)
  %11 = fadd double %.09, %10
  %12 = tail call noundef ptr @_ZSt18_Rb_tree_incrementPKSt18_Rb_tree_node_base(ptr noundef %.sroa.04.08) #47
  %.not = icmp eq ptr %12, %4
  br i1 %.not, label %._crit_edge, label %.lr.ph, !llvm.loop !137
}